target datalayout = "e-m:e-p270:32:32-p271:32:32-p272:64:64-i64:64-i128:128-f80:128-n8:16:32:64-S128"
target triple = "x86_64-pc-linux-gnu"

%struct.except_id_t = type { i64, i64 }
%struct._asn1_ctx_t = type { i32, i32, i8, ptr, ptr, ptr, ptr, ptr, %struct.anon, %struct.anon.2, %struct.anon.3, ptr }
%struct.anon = type { i32, i8, i8, i8, ptr, ptr, i32, i32, ptr, ptr, ptr, %union.anon }
%union.anon = type { %struct.anon.0 }
%struct.anon.0 = type { ptr }
%struct.anon.2 = type { ptr, ptr, ptr }
%struct.anon.3 = type { i32, i8, ptr, i32, i32, ptr, ptr, ptr, %union.anon.4 }
%union.anon.4 = type { %struct.anon.5 }
%struct.anon.5 = type { ptr }
%struct._packet_info = type { ptr, ptr, i32, i32, %struct.nstime_t, %struct.nstime_t, %struct.nstime_t, i8, ptr, ptr, ptr, ptr, %struct._address, %struct._address, %struct._address, %struct._address, %struct._address, %struct._address, i32, ptr, i8, [3 x i8], %struct.anon.7, i32, i32, i32, i32, ptr, i8, ptr, ptr, i16, i16, i32, i32, i16, i32, i32, ptr, ptr, ptr, i8, i8, i16, i16, i16, i32, i16, i16, ptr, ptr, ptr, ptr, ptr, i32, i32 }
%struct.nstime_t = type { i64, i32 }
%struct._address = type { i32, i32, ptr, ptr }
%struct.anon.7 = type { i8, [3 x i8] }
%struct.ngap_private_data = type { ptr, i32, i32, i32, i32, i32, i8, i8, i8, ptr, ptr, i32, i32, i8, ptr }
%struct.except_stacknode = type { ptr, i32, %union.anon.8 }
%union.anon.8 = type { ptr }
%struct.except_catch = type { ptr, i64, %struct.except_t, [1 x %struct.__jmp_buf_tag] }
%struct.except_t = type { %struct.except_id_t, ptr, ptr }
%struct.__jmp_buf_tag = type { [8 x i64], i32, %struct.__sigset_t }
%struct.__sigset_t = type { [16 x i64] }

@proto_json = internal global i32 0, align 4
@proto_ngap = internal global i32 0, align 4
@nr_rrc_ue_radio_access_cap_info_handle = internal global ptr null, align 8
@lte_rrc_ue_radio_access_cap_info_handle = internal global ptr null, align 8
@lte_rrc_ue_radio_access_cap_info_nb_handle = internal global ptr null, align 8
@.str.935 = private unnamed_addr constant [18 x i8] c"UERadioCapability\00", align 1
@ett_ngap_UERadioCapability = internal global i32 0, align 4
@ngap_dissect_lte_container_as = internal global i32 0, align 4
@dissect_ngap_UERadioCapability.catch_spec = internal constant [1 x %struct.except_id_t] [%struct.except_id_t { i64 1, i64 0 }], align 16

; Function Attrs: null_pointer_is_valid sspstrong uwtable
define internal ptr @ngap_get_private_data(ptr noundef %0) #0 {
  %2 = alloca ptr, align 8
  %3 = alloca ptr, align 8
  store ptr %0, ptr %2, align 8
  call void @llvm.lifetime.start.p0(i64 8, ptr %3) #11
  %4 = load ptr, ptr %2, align 8
  %5 = getelementptr inbounds nuw %struct._packet_info, ptr %4, i32 0, i32 51
  %6 = load ptr, ptr %5, align 8
  %7 = load ptr, ptr %2, align 8
  %8 = load i32, ptr @proto_ngap, align 4
  %9 = call ptr @p_get_proto_data(ptr noundef %6, ptr noundef %7, i32 noundef %8, i32 noundef 0)
  store ptr %9, ptr %3, align 8
  %10 = load ptr, ptr %3, align 8
  %11 = icmp ne ptr %10, null
  br i1 %11, label %27, label %12

12:                                               ; preds = %1
  %13 = load ptr, ptr %2, align 8
  %14 = getelementptr inbounds nuw %struct._packet_info, ptr %13, i32 0, i32 51
  %15 = load ptr, ptr %14, align 8
  %16 = call noalias ptr @wmem_alloc0(ptr noundef %15, i64 noundef 72) #12
  store ptr %16, ptr %3, align 8
  %17 = load ptr, ptr %3, align 8
  %18 = getelementptr inbounds nuw %struct.ngap_private_data, ptr %17, i32 0, i32 5
  store i32 -1, ptr %18, align 8
  %19 = load ptr, ptr %3, align 8
  %20 = getelementptr inbounds nuw %struct.ngap_private_data, ptr %19, i32 0, i32 13
  store i8 -1, ptr %20, align 8
  %21 = load ptr, ptr %2, align 8
  %22 = getelementptr inbounds nuw %struct._packet_info, ptr %21, i32 0, i32 51
  %23 = load ptr, ptr %22, align 8
  %24 = load ptr, ptr %2, align 8
  %25 = load i32, ptr @proto_ngap, align 4
  %26 = load ptr, ptr %3, align 8
  call void @p_add_proto_data(ptr noundef %23, ptr noundef %24, i32 noundef %25, i32 noundef 0, ptr noundef %26)
  br label %27

27:                                               ; preds = %12, %1
  %28 = load ptr, ptr %3, align 8
  call void @llvm.lifetime.end.p0(i64 8, ptr %3) #11
  ret ptr %28
}

; Function Attrs: null_pointer_is_valid sspstrong uwtable
define internal i32 @dissect_ngap_UERadioCapability(ptr noundef %0, i32 noundef %1, ptr noundef %2, ptr noundef %3, i32 noundef %4) #0 {
  %6 = alloca ptr, align 8
  %7 = alloca i32, align 4
  %8 = alloca ptr, align 8
  %9 = alloca ptr, align 8
  %10 = alloca i32, align 4
  %11 = alloca ptr, align 8
  %12 = alloca ptr, align 8
  %13 = alloca ptr, align 8
  %14 = alloca ptr, align 8
  %15 = alloca ptr, align 8
  %16 = alloca ptr, align 8
  %17 = alloca i32, align 4
  %18 = alloca %struct.except_stacknode, align 8
  %19 = alloca %struct.except_catch, align 8
  store ptr %0, ptr %6, align 8
  store i32 %1, ptr %7, align 4
  store ptr %2, ptr %8, align 8
  store ptr %3, ptr %9, align 8
  store i32 %4, ptr %10, align 4
  call void @llvm.lifetime.start.p0(i64 8, ptr %11) #11
  %20 = load ptr, ptr %8, align 8
  %21 = getelementptr inbounds nuw %struct._asn1_ctx_t, ptr %20, i32 0, i32 3
  %22 = load ptr, ptr %21, align 8
  %23 = getelementptr inbounds nuw %struct._packet_info, ptr %22, i32 0, i32 51
  %24 = load ptr, ptr %23, align 8
  %25 = load ptr, ptr %8, align 8
  %26 = getelementptr inbounds nuw %struct._asn1_ctx_t, ptr %25, i32 0, i32 3
  %27 = load ptr, ptr %26, align 8
  %28 = load i32, ptr @proto_json, align 4
  %29 = call ptr @p_get_proto_data(ptr noundef %24, ptr noundef %27, i32 noundef %28, i32 noundef 0)
  store ptr %29, ptr %11, align 8
  %30 = load ptr, ptr %11, align 8
  %31 = icmp ne ptr %30, null
  br i1 %31, label %32, label %38

32:                                               ; preds = %5
  %33 = load ptr, ptr %8, align 8
  %34 = getelementptr inbounds nuw %struct._asn1_ctx_t, ptr %33, i32 0, i32 3
  %35 = load ptr, ptr %34, align 8
  %36 = getelementptr inbounds nuw %struct._packet_info, ptr %35, i32 0, i32 1
  %37 = load ptr, ptr %36, align 8
  call void @col_append_sep_str(ptr noundef %37, i32 noundef 25, ptr noundef null, ptr noundef @.str.935)
  br label %38

38:                                               ; preds = %32, %5
  call void @llvm.lifetime.start.p0(i64 8, ptr %12) #11
  store ptr null, ptr %12, align 8
  call void @llvm.lifetime.start.p0(i64 8, ptr %13) #11
  %39 = load ptr, ptr %8, align 8
  %40 = getelementptr inbounds nuw %struct._asn1_ctx_t, ptr %39, i32 0, i32 3
  %41 = load ptr, ptr %40, align 8
  %42 = call ptr @ngap_get_private_data(ptr noundef %41)
  store ptr %42, ptr %13, align 8
  %43 = load ptr, ptr %6, align 8
  %44 = load i32, ptr %7, align 4
  %45 = load ptr, ptr %8, align 8
  %46 = load ptr, ptr %9, align 8
  %47 = load i32, ptr %10, align 4
  %48 = call i32 @dissect_per_octet_string(ptr noundef %43, i32 noundef %44, ptr noundef %45, ptr noundef %46, i32 noundef %47, i32 noundef -1, i32 noundef -1, i1 noundef zeroext false, ptr noundef %12)
  store i32 %48, ptr %7, align 4
  %49 = load ptr, ptr %12, align 8
  %50 = icmp ne ptr %49, null
  br i1 %50, label %51, label %181

51:                                               ; preds = %38
  call void @llvm.lifetime.start.p0(i64 8, ptr %14) #11
  call void @llvm.lifetime.start.p0(i64 8, ptr %15) #11
  %52 = load ptr, ptr %8, align 8
  %53 = getelementptr inbounds nuw %struct._asn1_ctx_t, ptr %52, i32 0, i32 4
  %54 = load ptr, ptr %53, align 8
  %55 = load i32, ptr @ett_ngap_UERadioCapability, align 4
  %56 = call ptr @proto_item_add_subtree(ptr noundef %54, i32 noundef %55)
  store ptr %56, ptr %14, align 8
  %57 = load ptr, ptr %13, align 8
  %58 = getelementptr inbounds nuw %struct.ngap_private_data, ptr %57, i32 0, i32 1
  %59 = load i32, ptr %58, align 8
  %60 = icmp eq i32 %59, 265
  br i1 %60, label %61, label %63

61:                                               ; preds = %51
  %62 = load ptr, ptr @lte_rrc_ue_radio_access_cap_info_handle, align 8
  store volatile ptr %62, ptr %15, align 8
  br label %79

63:                                               ; preds = %51
  %64 = load ptr, ptr %8, align 8
  %65 = getelementptr inbounds nuw %struct._asn1_ctx_t, ptr %64, i32 0, i32 3
  %66 = load ptr, ptr %65, align 8
  %67 = call zeroext i1 @ngap_is_nbiot_ue(ptr noundef %66)
  br i1 %67, label %68, label %71

68:                                               ; preds = %63
  %69 = load i32, ptr @ngap_dissect_lte_container_as, align 4
  %70 = icmp eq i32 %69, 0
  br i1 %70, label %74, label %71

71:                                               ; preds = %68, %63
  %72 = load i32, ptr @ngap_dissect_lte_container_as, align 4
  %73 = icmp eq i32 %72, 2
  br i1 %73, label %74, label %76

74:                                               ; preds = %71, %68
  %75 = load ptr, ptr @lte_rrc_ue_radio_access_cap_info_nb_handle, align 8
  store volatile ptr %75, ptr %15, align 8
  br label %78

76:                                               ; preds = %71
  %77 = load ptr, ptr @nr_rrc_ue_radio_access_cap_info_handle, align 8
  store volatile ptr %77, ptr %15, align 8
  br label %78

78:                                               ; preds = %76, %74
  br label %79

79:                                               ; preds = %78, %61
  %80 = load volatile ptr, ptr %15, align 8
  %81 = icmp ne ptr %80, null
  br i1 %81, label %82, label %180

82:                                               ; preds = %79
  call void @llvm.lifetime.start.p0(i64 8, ptr %16) #11
  call void @llvm.lifetime.start.p0(i64 4, ptr %17) #11
  store volatile i32 0, ptr %17, align 4
  call void @llvm.lifetime.start.p0(i64 24, ptr %18) #11
  call void @llvm.lifetime.start.p0(i64 248, ptr %19) #11
  call void @except_setup_try(ptr noundef %18, ptr noundef %19, ptr noundef @dissect_ngap_UERadioCapability.catch_spec, i64 noundef 1)
  %83 = getelementptr inbounds nuw %struct.except_catch, ptr %19, i32 0, i32 3
  %84 = getelementptr inbounds [1 x %struct.__jmp_buf_tag], ptr %83, i64 0, i64 0
  %85 = call i32 @_setjmp(ptr noundef %84) #14
  %86 = icmp ne i32 %85, 0
  br i1 %86, label %87, label %89

87:                                               ; preds = %82
  %88 = getelementptr inbounds nuw %struct.except_catch, ptr %19, i32 0, i32 2
  store volatile ptr %88, ptr %16, align 8
  br label %90

89:                                               ; preds = %82
  store volatile ptr null, ptr %16, align 8
  br label %90

90:                                               ; preds = %89, %87
  %91 = load volatile i32, ptr %17, align 4
  %92 = and i32 %91, 1
  %93 = icmp ne i32 %92, 0
  br i1 %93, label %94, label %97

94:                                               ; preds = %90
  %95 = load volatile i32, ptr %17, align 4
  %96 = or i32 %95, 2
  store volatile i32 %96, ptr %17, align 4
  br label %97

97:                                               ; preds = %94, %90
  %98 = load volatile i32, ptr %17, align 4
  %99 = and i32 %98, -2
  store volatile i32 %99, ptr %17, align 4
  %100 = load volatile i32, ptr %17, align 4
  %101 = icmp eq i32 %100, 0
  br i1 %101, label %102, label %113

102:                                              ; preds = %97
  %103 = load volatile ptr, ptr %16, align 8
  %104 = icmp eq ptr %103, null
  br i1 %104, label %105, label %113

105:                                              ; preds = %102
  %106 = load volatile ptr, ptr %15, align 8
  %107 = load ptr, ptr %12, align 8
  %108 = load ptr, ptr %8, align 8
  %109 = getelementptr inbounds nuw %struct._asn1_ctx_t, ptr %108, i32 0, i32 3
  %110 = load ptr, ptr %109, align 8
  %111 = load ptr, ptr %14, align 8
  %112 = call i32 @call_dissector(ptr noundef %106, ptr noundef %107, ptr noundef %110, ptr noundef %111)
  br label %113

113:                                              ; preds = %105, %102, %97
  %114 = load volatile i32, ptr %17, align 4
  %115 = icmp eq i32 %114, 0
  br i1 %115, label %116, label %166

116:                                              ; preds = %113
  %117 = load volatile ptr, ptr %16, align 8
  %118 = icmp ne ptr %117, null
  br i1 %118, label %119, label %166

119:                                              ; preds = %116
  %120 = load volatile ptr, ptr %16, align 8
  %121 = getelementptr inbounds nuw %struct.except_t, ptr %120, i32 0, i32 0
  %122 = getelementptr inbounds nuw %struct.except_id_t, ptr %121, i32 0, i32 1
  %123 = load volatile i64, ptr %122, align 8
  %124 = icmp eq i64 %123, 1
  br i1 %124, label %149, label %125

125:                                              ; preds = %119
  %126 = load volatile ptr, ptr %16, align 8
  %127 = getelementptr inbounds nuw %struct.except_t, ptr %126, i32 0, i32 0
  %128 = getelementptr inbounds nuw %struct.except_id_t, ptr %127, i32 0, i32 1
  %129 = load volatile i64, ptr %128, align 8
  %130 = icmp eq i64 %129, 4
  br i1 %130, label %149, label %131

131:                                              ; preds = %125
  %132 = load volatile ptr, ptr %16, align 8
  %133 = getelementptr inbounds nuw %struct.except_t, ptr %132, i32 0, i32 0
  %134 = getelementptr inbounds nuw %struct.except_id_t, ptr %133, i32 0, i32 1
  %135 = load volatile i64, ptr %134, align 8
  %136 = icmp eq i64 %135, 3
  br i1 %136, label %149, label %137

137:                                              ; preds = %131
  %138 = load volatile ptr, ptr %16, align 8
  %139 = getelementptr inbounds nuw %struct.except_t, ptr %138, i32 0, i32 0
  %140 = getelementptr inbounds nuw %struct.except_id_t, ptr %139, i32 0, i32 1
  %141 = load volatile i64, ptr %140, align 8
  %142 = icmp eq i64 %141, 2
  br i1 %142, label %149, label %143

143:                                              ; preds = %137
  %144 = load volatile ptr, ptr %16, align 8
  %145 = getelementptr inbounds nuw %struct.except_t, ptr %144, i32 0, i32 0
  %146 = getelementptr inbounds nuw %struct.except_id_t, ptr %145, i32 0, i32 1
  %147 = load volatile i64, ptr %146, align 8
  %148 = icmp eq i64 %147, 7
  br i1 %148, label %149, label %166

149:                                              ; preds = %143, %137, %131, %125, %119
  %150 = load volatile i32, ptr %17, align 4
  %151 = or i32 %150, 1
  store volatile i32 %151, ptr %17, align 4
  %152 = icmp ne i32 %151, 0
  br i1 %152, label %153, label %166

153:                                              ; preds = %149
  %154 = load ptr, ptr %12, align 8
  %155 = load ptr, ptr %8, align 8
  %156 = getelementptr inbounds nuw %struct._asn1_ctx_t, ptr %155, i32 0, i32 3
  %157 = load ptr, ptr %156, align 8
  %158 = load ptr, ptr %14, align 8
  %159 = load volatile ptr, ptr %16, align 8
  %160 = getelementptr inbounds nuw %struct.except_t, ptr %159, i32 0, i32 0
  %161 = getelementptr inbounds nuw %struct.except_id_t, ptr %160, i32 0, i32 1
  %162 = load volatile i64, ptr %161, align 8
  %163 = load volatile ptr, ptr %16, align 8
  %164 = getelementptr inbounds nuw %struct.except_t, ptr %163, i32 0, i32 1
  %165 = load volatile ptr, ptr %164, align 8
  call void @show_exception(ptr noundef %154, ptr noundef %157, ptr noundef %158, i64 noundef %162, ptr noundef %165)
  br label %166

166:                                              ; preds = %153, %149, %143, %116, %113
  %167 = load volatile i32, ptr %17, align 4
  %168 = and i32 %167, 1
  %169 = icmp ne i32 %168, 0
  br i1 %169, label %175, label %170

170:                                              ; preds = %166
  %171 = load volatile ptr, ptr %16, align 8
  %172 = icmp ne ptr %171, null
  br i1 %172, label %173, label %175

173:                                              ; preds = %170
  %174 = load volatile ptr, ptr %16, align 8
  call void @except_rethrow(ptr noundef %174) #15
  unreachable

175:                                              ; preds = %170, %166
  %176 = getelementptr inbounds nuw %struct.except_catch, ptr %19, i32 0, i32 2
  %177 = getelementptr inbounds nuw %struct.except_t, ptr %176, i32 0, i32 2
  %178 = load volatile ptr, ptr %177, align 8
  call void @except_free(ptr noundef %178)
  %179 = call ptr @except_pop()
  call void @llvm.lifetime.end.p0(i64 248, ptr %19) #11
  call void @llvm.lifetime.end.p0(i64 24, ptr %18) #11
  call void @llvm.lifetime.end.p0(i64 4, ptr %17) #11
  call void @llvm.lifetime.end.p0(i64 8, ptr %16) #11
  br label %180

180:                                              ; preds = %175, %79
  call void @llvm.lifetime.end.p0(i64 8, ptr %15) #11
  call void @llvm.lifetime.end.p0(i64 8, ptr %14) #11
  br label %181

181:                                              ; preds = %180, %38
  %182 = load i32, ptr %7, align 4
  call void @llvm.lifetime.end.p0(i64 8, ptr %13) #11
  call void @llvm.lifetime.end.p0(i64 8, ptr %12) #11
  call void @llvm.lifetime.end.p0(i64 8, ptr %11) #11
  ret i32 %182
}