; Function Attrs: null_pointer_is_valid sspstrong uwtable
define internal fastcc i32 @dissect_ngap_UERadioCapability(ptr noundef %0, ptr noundef %1, ptr noundef %2, i32 noundef %3) unnamed_addr #0 {
  %5 = alloca ptr, align 8
  %6 = alloca ptr, align 8
  %7 = alloca ptr, align 8
  %8 = alloca i32, align 4
  %9 = alloca %struct.except_stacknode, align 8
  %10 = alloca %struct.except_catch, align 8
  %11 = getelementptr inbounds nuw i8, ptr %1, i64 16
  %12 = load ptr, ptr %11, align 8
  %13 = getelementptr inbounds nuw i8, ptr %12, i64 408
  %14 = load ptr, ptr %13, align 8
  %15 = load i32, ptr @proto_json, align 4
  %16 = call ptr @p_get_proto_data(ptr noundef %14, ptr noundef %12, i32 noundef %15, i32 noundef 0)
  %.not = icmp eq ptr %16, null
  br i1 %.not, label %21, label %17

17:                                               ; preds = %4
  %18 = load ptr, ptr %11, align 8
  %19 = getelementptr inbounds nuw i8, ptr %18, i64 8
  %20 = load ptr, ptr %19, align 8
  call void @col_append_sep_str(ptr noundef %20, i32 noundef 25, ptr noundef null, ptr noundef nonnull @.str.935)
  br label %21

21:                                               ; preds = %17, %4
  call void @llvm.lifetime.start.p0(i64 8, ptr nonnull %5) #12
  store ptr null, ptr %5, align 8
  %22 = load ptr, ptr %11, align 8
  %23 = getelementptr inbounds nuw i8, ptr %22, i64 408
  %24 = load ptr, ptr %23, align 8
  %25 = load i32, ptr @proto_ngap, align 4
  %26 = call ptr @p_get_proto_data(ptr noundef %24, ptr noundef %22, i32 noundef %25, i32 noundef 0)
  %.not.i = icmp eq ptr %26, null
  br i1 %.not.i, label %27, label %ngap_get_private_data.exit

27:                                               ; preds = %21
  %28 = load ptr, ptr %23, align 8
  %29 = call noalias dereferenceable_or_null(72) ptr @wmem_alloc0(ptr noundef %28, i64 noundef 72) #13
  %30 = getelementptr inbounds nuw i8, ptr %29, i64 24
  store i32 -1, ptr %30, align 8
  %31 = getelementptr inbounds nuw i8, ptr %29, i64 56
  store i8 -1, ptr %31, align 8
  %32 = load ptr, ptr %23, align 8
  %33 = load i32, ptr @proto_ngap, align 4
  call void @p_add_proto_data(ptr noundef %32, ptr noundef %22, i32 noundef %33, i32 noundef 0, ptr noundef %29)
  br label %ngap_get_private_data.exit

ngap_get_private_data.exit:                       ; preds = %21, %27
  %.0.i = phi ptr [ %26, %21 ], [ %29, %27 ]
  %34 = call i32 @dissect_per_octet_string(ptr noundef %0, i32 noundef 0, ptr noundef %1, ptr noundef %2, i32 noundef %3, i32 noundef -1, i32 noundef -1, i1 noundef zeroext false, ptr noundef nonnull %5)
  %35 = load ptr, ptr %5, align 8
  %.not40 = icmp eq ptr %35, null
  br i1 %.not40, label %108, label %36

36:                                               ; preds = %ngap_get_private_data.exit
  call void @llvm.lifetime.start.p0(i64 8, ptr nonnull %6)
  %37 = getelementptr inbounds nuw i8, ptr %1, i64 24
  %38 = load ptr, ptr %37, align 8
  %39 = load i32, ptr @ett_ngap_UERadioCapability, align 4
  %40 = call ptr @proto_item_add_subtree(ptr noundef %38, i32 noundef %39)
  %41 = getelementptr inbounds nuw i8, ptr %.0.i, i64 8
  %42 = load i32, ptr %41, align 8
  %43 = icmp eq i32 %42, 265
  br i1 %43, label %50, label %44

44:                                               ; preds = %36
  %45 = load ptr, ptr %11, align 8
  %46 = call fastcc zeroext i1 @ngap_is_nbiot_ue(ptr noundef %45)
  %47 = load i32, ptr @ngap_dissect_lte_container_as, align 4
  %48 = icmp eq i32 %47, 0
  %or.cond = select i1 %46, i1 %48, i1 false
  %49 = icmp eq i32 %47, 2
  %or.cond3 = select i1 %or.cond, i1 true, i1 %49
  %lte_rrc_ue_radio_access_cap_info_nb_handle.nr_rrc_ue_radio_access_cap_info_handle = select i1 %or.cond3, ptr @lte_rrc_ue_radio_access_cap_info_nb_handle, ptr @nr_rrc_ue_radio_access_cap_info_handle
  br label %50

50:                                               ; preds = %44, %36
  %lte_rrc_ue_radio_access_cap_info_nb_handle.sink = phi ptr [ @lte_rrc_ue_radio_access_cap_info_handle, %36 ], [ %lte_rrc_ue_radio_access_cap_info_nb_handle.nr_rrc_ue_radio_access_cap_info_handle, %44 ]
  %51 = load ptr, ptr %lte_rrc_ue_radio_access_cap_info_nb_handle.sink, align 8
  store volatile ptr %51, ptr %6, align 8
  %.0..0..0..0.21 = load volatile ptr, ptr %6, align 8
  %.not41 = icmp eq ptr %.0..0..0..0.21, null
  br i1 %.not41, label %107, label %52

52:                                               ; preds = %50
  call void @llvm.lifetime.start.p0(i64 8, ptr nonnull %7)
  call void @llvm.lifetime.start.p0(i64 4, ptr nonnull %8)
  store volatile i32 0, ptr %8, align 4
  call void @llvm.lifetime.start.p0(i64 24, ptr nonnull %9) #12
  call void @llvm.lifetime.start.p0(i64 248, ptr nonnull %10) #12
  call void @except_setup_try(ptr noundef nonnull %9, ptr noundef nonnull %10, ptr noundef nonnull @dissect_ngap_UERadioCapability.catch_spec, i64 noundef 1)
  %53 = getelementptr inbounds nuw i8, ptr %10, i64 48
  %54 = call i32 @_setjmp(ptr noundef nonnull %53) #16
  %.not42 = icmp eq i32 %54, 0
  %55 = getelementptr inbounds nuw i8, ptr %10, i64 16
  %.sink = select i1 %.not42, ptr null, ptr %55
  store volatile ptr %.sink, ptr %7, align 8
  %.0..0..0..0. = load volatile i32, ptr %8, align 4
  %56 = and i32 %.0..0..0..0., 1
  %.not43 = icmp eq i32 %56, 0
  br i1 %.not43, label %59, label %57

57:                                               ; preds = %52
  %.0..0..0..0.4 = load volatile i32, ptr %8, align 4
  %58 = or i32 %.0..0..0..0.4, 2
  store volatile i32 %58, ptr %8, align 4
  br label %59

59:                                               ; preds = %57, %52
  %.0..0..0..0.5 = load volatile i32, ptr %8, align 4
  %60 = and i32 %.0..0..0..0.5, -2
  store volatile i32 %60, ptr %8, align 4
  %.0..0..0..0.6 = load volatile i32, ptr %8, align 4
  %61 = icmp eq i32 %.0..0..0..0.6, 0
  br i1 %61, label %62, label %68

62:                                               ; preds = %59
  %.0..0..0..0.10 = load volatile ptr, ptr %7, align 8
  %63 = icmp eq ptr %.0..0..0..0.10, null
  br i1 %63, label %64, label %68

64:                                               ; preds = %62
  %.0..0..0..0.22 = load volatile ptr, ptr %6, align 8
  %65 = load ptr, ptr %5, align 8
  %66 = load ptr, ptr %11, align 8
  %67 = call i32 @call_dissector(ptr noundef %.0..0..0..0.22, ptr noundef %65, ptr noundef %66, ptr noundef %40)
  br label %68

68:                                               ; preds = %64, %62, %59
  %.0..0..0..0.7 = load volatile i32, ptr %8, align 4
  %69 = icmp eq i32 %.0..0..0..0.7, 0
  br i1 %69, label %70, label %99

70:                                               ; preds = %68
  %.0..0..0..0.11 = load volatile ptr, ptr %7, align 8
  %.not44 = icmp eq ptr %.0..0..0..0.11, null
  br i1 %.not44, label %99, label %71

71:                                               ; preds = %70
  %.0..0..0..0.12 = load volatile ptr, ptr %7, align 8
  %72 = getelementptr inbounds nuw i8, ptr %.0..0..0..0.12, i64 8
  %73 = load volatile i64, ptr %72, align 8
  %74 = icmp eq i64 %73, 1
  br i1 %74, label %91, label %75

75:                                               ; preds = %71
  %.0..0..0..0.13 = load volatile ptr, ptr %7, align 8
  %76 = getelementptr inbounds nuw i8, ptr %.0..0..0..0.13, i64 8
  %77 = load volatile i64, ptr %76, align 8
  %78 = icmp eq i64 %77, 4
  br i1 %78, label %91, label %79

79:                                               ; preds = %75
  %.0..0..0..0.14 = load volatile ptr, ptr %7, align 8
  %80 = getelementptr inbounds nuw i8, ptr %.0..0..0..0.14, i64 8
  %81 = load volatile i64, ptr %80, align 8
  %82 = icmp eq i64 %81, 3
  br i1 %82, label %91, label %83

83:                                               ; preds = %79
  %.0..0..0..0.15 = load volatile ptr, ptr %7, align 8
  %84 = getelementptr inbounds nuw i8, ptr %.0..0..0..0.15, i64 8
  %85 = load volatile i64, ptr %84, align 8
  %86 = icmp eq i64 %85, 2
  br i1 %86, label %91, label %87

87:                                               ; preds = %83
  %.0..0..0..0.16 = load volatile ptr, ptr %7, align 8
  %88 = getelementptr inbounds nuw i8, ptr %.0..0..0..0.16, i64 8
  %89 = load volatile i64, ptr %88, align 8
  %90 = icmp eq i64 %89, 7
  br i1 %90, label %91, label %99

91:                                               ; preds = %87, %83, %79, %75, %71
  %.0..0..0..0.8 = load volatile i32, ptr %8, align 4
  %92 = or i32 %.0..0..0..0.8, 1
  store volatile i32 %92, ptr %8, align 4
  %93 = load ptr, ptr %5, align 8
  %94 = load ptr, ptr %11, align 8
  %.0..0..0..0.17 = load volatile ptr, ptr %7, align 8
  %95 = getelementptr inbounds nuw i8, ptr %.0..0..0..0.17, i64 8
  %96 = load volatile i64, ptr %95, align 8
  %.0..0..0..0.18 = load volatile ptr, ptr %7, align 8
  %97 = getelementptr inbounds nuw i8, ptr %.0..0..0..0.18, i64 16
  %98 = load volatile ptr, ptr %97, align 8
  call void @show_exception(ptr noundef %93, ptr noundef %94, ptr noundef %40, i64 noundef %96, ptr noundef %98)
  br label %99

99:                                               ; preds = %91, %87, %70, %68
  %.0..0..0..0.9 = load volatile i32, ptr %8, align 4
  %100 = and i32 %.0..0..0..0.9, 1
  %.not45 = icmp eq i32 %100, 0
  br i1 %.not45, label %101, label %103

101:                                              ; preds = %99
  %.0..0..0..0.19 = load volatile ptr, ptr %7, align 8
  %.not46 = icmp eq ptr %.0..0..0..0.19, null
  br i1 %.not46, label %103, label %102

102:                                              ; preds = %101
  %.0..0..0..0.20 = load volatile ptr, ptr %7, align 8
  call void @except_rethrow(ptr noundef %.0..0..0..0.20) #17
  unreachable

103:                                              ; preds = %101, %99
  %104 = getelementptr inbounds nuw i8, ptr %10, i64 40
  %105 = load volatile ptr, ptr %104, align 8
  call void @except_free(ptr noundef %105)
  %106 = call ptr @except_pop()
  call void @llvm.lifetime.end.p0(i64 248, ptr nonnull %10) #12
  call void @llvm.lifetime.end.p0(i64 24, ptr nonnull %9) #12
  call void @llvm.lifetime.end.p0(i64 4, ptr nonnull %8)
  call void @llvm.lifetime.end.p0(i64 8, ptr nonnull %7)
  br label %107

107:                                              ; preds = %103, %50
  call void @llvm.lifetime.end.p0(i64 8, ptr nonnull %6)
  br label %108

108:                                              ; preds = %107, %ngap_get_private_data.exit
  call void @llvm.lifetime.end.p0(i64 8, ptr nonnull %5) #12
  ret i32 %34
}